; Function Attrs: nofree norecurse nosync nounwind memory(argmem: readwrite) uwtable
define range(i32 -173, 1) i32 @wc_Poly1305_EncodeSizes64(ptr noundef captures(address_is_null) %0, i64 noundef %1, i64 noundef %2) local_unnamed_addr #2 {
  %4 = alloca [2 x i64], align 16
  call void @llvm.lifetime.start.p0(i64 16, ptr nonnull %4) #6
  %5 = icmp eq ptr %0, null
  br i1 %5, label %wc_Poly1305Update.exit, label %6

6:                                                ; preds = %3
  store i64 %1, ptr %4, align 16, !tbaa !3
  %7 = getelementptr inbounds nuw i8, ptr %4, i64 8
  store i64 %2, ptr %7, align 8, !tbaa !3
  %8 = getelementptr inbounds nuw i8, ptr %0, i64 64
  %9 = load i64, ptr %8, align 8, !tbaa !7
  %.not.i = icmp eq i64 %9, 0
  br i1 %.not.i, label %.thread, label %10

10:                                               ; preds = %6
  %11 = sub i64 16, %9
  %spec.select.i = tail call i64 @llvm.umin.i64(i64 %11, i64 16)
  %.not74.i = icmp eq i64 %9, 16
  br i1 %.not74.i, label %._crit_edge.i, label %.lr.ph.i

.lr.ph.i:                                         ; preds = %10
  %umax.i = tail call i64 @llvm.umax.i64(i64 %spec.select.i, i64 1)
  %12 = getelementptr i8, ptr %0, i64 %9
  %scevgep = getelementptr i8, ptr %12, i64 72
  call void @llvm.memcpy.p0.p0.i64(ptr noundef nonnull align 1 dereferenceable(1) %scevgep, ptr noundef nonnull align 16 dereferenceable(1) %4, i64 %umax.i, i1 false), !tbaa !10
  br label %._crit_edge.i

._crit_edge.i:                                    ; preds = %.lr.ph.i, %10
  %13 = add i64 %spec.select.i, %9
  store i64 %13, ptr %8, align 8, !tbaa !7
  %14 = icmp ugt i64 %13, 15
  br i1 %14, label %15, label %wc_Poly1305Update.exit

15:                                               ; preds = %._crit_edge.i
  %16 = getelementptr inbounds nuw i8, ptr %4, i64 %spec.select.i
  %17 = trunc nuw nsw i64 %spec.select.i to i32
  %18 = sub nuw nsw i32 16, %17
  %19 = getelementptr inbounds nuw i8, ptr %0, i64 72
  tail call fastcc void @poly1305_blocks(ptr noundef nonnull %0, ptr noundef nonnull readonly %19, i64 noundef 16)
  store i64 0, ptr %8, align 8, !tbaa !7
  %20 = icmp eq i64 %9, 16
  br i1 %20, label %.thread, label %25

.thread:                                          ; preds = %6, %15
  %.053.i9 = phi ptr [ %16, %15 ], [ %4, %6 ]
  %.061.i8 = phi i32 [ %18, %15 ], [ 16, %6 ]
  %21 = and i32 %.061.i8, 16
  %22 = zext nneg i32 %21 to i64
  call fastcc void @poly1305_blocks(ptr noundef nonnull %0, ptr noundef nonnull %.053.i9, i64 noundef %22)
  %23 = and i32 %.061.i8, 15
  %24 = getelementptr inbounds nuw i8, ptr %.053.i9, i64 %22
  br label %25

25:                                               ; preds = %.thread, %15
  %.162.i = phi i32 [ %23, %.thread ], [ %18, %15 ]
  %.154.i = phi ptr [ %24, %.thread ], [ %16, %15 ]
  %.not71.i = icmp eq i32 %.162.i, 0
  br i1 %.not71.i, label %wc_Poly1305Update.exit, label %.preheader.i

.preheader.i:                                     ; preds = %25
  %26 = zext nneg i32 %.162.i to i64
  %27 = getelementptr inbounds nuw i8, ptr %0, i64 72
  %28 = load i64, ptr %8, align 8, !tbaa !7
  br label %29

29:                                               ; preds = %29, %.preheader.i
  %.16073.i = phi i64 [ 0, %.preheader.i ], [ %34, %29 ]
  %30 = getelementptr inbounds nuw i8, ptr %.154.i, i64 %.16073.i
  %31 = load i8, ptr %30, align 1, !tbaa !10
  %32 = add i64 %.16073.i, %28
  %33 = getelementptr inbounds nuw [16 x i8], ptr %27, i64 0, i64 %32
  store i8 %31, ptr %33, align 1, !tbaa !10
  %34 = add nuw nsw i64 %.16073.i, 1
  %exitcond75.not.i = icmp eq i64 %34, %26
  br i1 %exitcond75.not.i, label %35, label %29, !llvm.loop !13

35:                                               ; preds = %29
  %36 = add i64 %28, %26
  store i64 %36, ptr %8, align 8, !tbaa !7
  br label %wc_Poly1305Update.exit

wc_Poly1305Update.exit:                           ; preds = %35, %25, %._crit_edge.i, %3
  %.0 = phi i32 [ -173, %3 ], [ 0, %._crit_edge.i ], [ 0, %25 ], [ 0, %35 ]
  call void @llvm.lifetime.end.p0(i64 16, ptr nonnull %4) #6
  ret i32 %.0
}